	.file	"test.cpp"
	.local	_ZStL8__ioinit
	.comm	_ZStL8__ioinit,1,1
	.section	.text._ZN4DateC2Eiii,"axG",@progbits,_ZN4DateC5Eiii,comdat
	.align 2
	.weak	_ZN4DateC2Eiii
	.type	_ZN4DateC2Eiii, @function
_ZN4DateC2Eiii:
.LFB972:
	.cfi_startproc
	pushq	%rbp
	.cfi_def_cfa_offset 16
	.cfi_offset 6, -16
	movq	%rsp, %rbp
	.cfi_def_cfa_register 6
	movq	%rdi, -8(%rbp)
	movl	%esi, -12(%rbp)
	movl	%edx, -16(%rbp)
	movl	%ecx, -20(%rbp)
	movq	-8(%rbp), %rax
	movl	-12(%rbp), %edx
	movl	%edx, (%rax)
	movq	-8(%rbp), %rax
	movl	-16(%rbp), %edx
	movl	%edx, 4(%rax)
	movq	-8(%rbp), %rax
	movl	-20(%rbp), %edx
	movl	%edx, 8(%rax)
	popq	%rbp
	.cfi_def_cfa 7, 8
	ret
	.cfi_endproc
.LFE972:
	.size	_ZN4DateC2Eiii, .-_ZN4DateC2Eiii
	.weak	_ZN4DateC1Eiii
	.set	_ZN4DateC1Eiii,_ZN4DateC2Eiii
	.section	.rodata
.LC0:
	.string	":"
	.section	.text._ZN4Date7DisplayEv,"axG",@progbits,_ZN4Date7DisplayEv,comdat
	.align 2
	.weak	_ZN4Date7DisplayEv
	.type	_ZN4Date7DisplayEv, @function
_ZN4Date7DisplayEv:
.LFB974:
	.cfi_startproc
	pushq	%rbp
	.cfi_def_cfa_offset 16
	.cfi_offset 6, -16
	movq	%rsp, %rbp
	.cfi_def_cfa_register 6
	pushq	%r12
	pushq	%rbx
	subq	$16, %rsp
	.cfi_offset 12, -24
	.cfi_offset 3, -32
	movq	%rdi, -24(%rbp)
	movq	-24(%rbp), %rax
	movl	8(%rax), %ebx
	movq	-24(%rbp), %rax
	movl	4(%rax), %r12d
	movq	-24(%rbp), %rax
	movl	(%rax), %eax
	movl	%eax, %esi
	movl	$_ZSt4cout, %edi
	call	_ZNSolsEi
	movl	$.LC0, %esi
	movq	%rax, %rdi
	call	_ZStlsISt11char_traitsIcEERSt13basic_ostreamIcT_ES5_PKc
	movl	%r12d, %esi
	movq	%rax, %rdi
	call	_ZNSolsEi
	movl	$.LC0, %esi
	movq	%rax, %rdi
	call	_ZStlsISt11char_traitsIcEERSt13basic_ostreamIcT_ES5_PKc
	movl	%ebx, %esi
	movq	%rax, %rdi
	call	_ZNSolsEi
	movl	$_ZSt4endlIcSt11char_traitsIcEERSt13basic_ostreamIT_T0_ES6_, %esi
	movq	%rax, %rdi
	call	_ZNSolsEPFRSoS_E
	addq	$16, %rsp
	popq	%rbx
	popq	%r12
	popq	%rbp
	.cfi_def_cfa 7, 8
	ret
	.cfi_endproc
.LFE974:
	.size	_ZN4Date7DisplayEv, .-_ZN4Date7DisplayEv
	.text
	.globl	main
	.type	main, @function
main:
.LFB975:
	.cfi_startproc
	pushq	%rbp
	.cfi_def_cfa_offset 16
	.cfi_offset 6, -16
	movq	%rsp, %rbp
	.cfi_def_cfa_register 6
	subq	$32, %rsp
	leaq	-16(%rbp), %rax
	movl	$1, %ecx
	movl	$6, %edx
	movl	$2021, %esi
	movq	%rax, %rdi
	call	_ZN4DateC1Eiii
	leaq	-16(%rbp), %rax
	movq	%rax, %rdi
	call	_ZN4Date7DisplayEv
	movq	-16(%rbp), %rax
	movq	%rax, -32(%rbp)
	movl	-8(%rbp), %eax
	movl	%eax, -24(%rbp)
	leaq	-32(%rbp), %rax
	movq	%rax, %rdi
	call	_ZN4Date7DisplayEv
	movl	$0, %eax
	leave
	.cfi_def_cfa 7, 8
	ret
	.cfi_endproc
.LFE975:
	.size	main, .-main
	.type	_Z41__static_initialization_and_destruction_0ii, @function
_Z41__static_initialization_and_destruction_0ii:
.LFB984:
	.cfi_startproc
	pushq	%rbp
	.cfi_def_cfa_offset 16
	.cfi_offset 6, -16
	movq	%rsp, %rbp
	.cfi_def_cfa_register 6
	subq	$16, %rsp
	movl	%edi, -4(%rbp)
	movl	%esi, -8(%rbp)
	cmpl	$1, -4(%rbp)
	jne	.L5
	cmpl	$65535, -8(%rbp)
	jne	.L5
	movl	$_ZStL8__ioinit, %edi
	call	_ZNSt8ios_base4InitC1Ev
	movl	$__dso_handle, %edx
	movl	$_ZStL8__ioinit, %esi
	movl	$_ZNSt8ios_base4InitD1Ev, %edi
	call	__cxa_atexit
.L5:
	leave
	.cfi_def_cfa 7, 8
	ret
	.cfi_endproc
.LFE984:
	.size	_Z41__static_initialization_and_destruction_0ii, .-_Z41__static_initialization_and_destruction_0ii
	.type	_GLOBAL__sub_I_main, @function
_GLOBAL__sub_I_main:
.LFB985:
	.cfi_startproc
	pushq	%rbp
	.cfi_def_cfa_offset 16
	.cfi_offset 6, -16
	movq	%rsp, %rbp
	.cfi_def_cfa_register 6
	movl	$65535, %esi
	movl	$1, %edi
	call	_Z41__static_initialization_and_destruction_0ii
	popq	%rbp
	.cfi_def_cfa 7, 8
	ret
	.cfi_endproc
.LFE985:
	.size	_GLOBAL__sub_I_main, .-_GLOBAL__sub_I_main
	.section	.init_array,"aw"
	.align 8
	.quad	_GLOBAL__sub_I_main
	.hidden	__dso_handle
	.ident	"GCC: (GNU) 4.8.5 20150623 (Red Hat 4.8.5-44)"
	.section	.note.GNU-stack,"",@progbits
